target datalayout = "e-m:e-p270:32:32-p271:32:32-p272:64:64-i64:64-i128:128-f80:128-n8:16:32:64-S128"
target triple = "x86_64-pc-linux-gnu"

@ett_bacapp_tag = internal global i32 0, align 4
@.str.2628 = private unnamed_addr constant [6 x i8] c"%sany\00", align 1
@.str.2629 = private unnamed_addr constant [32 x i8] c"%s%s %d, %d, (Day of Week = %s)\00", align 1
@.str.2630 = private unnamed_addr constant [21 x i8] c"month (%d) not found\00", align 1
@.str.2631 = private unnamed_addr constant [15 x i8] c"(%d) not found\00", align 1
@.str.2632 = private unnamed_addr constant [38 x i8] c"%s%s %d, any year, (Day of Week = %s)\00", align 1

; Function Attrs: null_pointer_is_valid sspstrong uwtable
define internal i32 @fTagHeader(ptr noundef %0, ptr noundef %1, i32 noundef %2, ptr noundef %3, ptr noundef %4, ptr noundef %5) #0 {
  %7 = alloca ptr, align 8
  %8 = alloca ptr, align 8
  %9 = alloca i32, align 4
  %10 = alloca ptr, align 8
  %11 = alloca ptr, align 8
  %12 = alloca ptr, align 8
  store ptr %0, ptr %7, align 8
  store ptr %1, ptr %8, align 8
  store i32 %2, ptr %9, align 4
  store ptr %3, ptr %10, align 8
  store ptr %4, ptr %11, align 8
  store ptr %5, ptr %12, align 8
  %13 = load ptr, ptr %7, align 8
  %14 = load ptr, ptr %8, align 8
  %15 = load i32, ptr %9, align 4
  %16 = load ptr, ptr %10, align 8
  %17 = load ptr, ptr %11, align 8
  %18 = load ptr, ptr %12, align 8
  %19 = call i32 @fTagHeaderTree(ptr noundef %13, ptr noundef %14, ptr noundef null, i32 noundef %15, ptr noundef %16, ptr noundef %17, ptr noundef %18)
  ret i32 %19
}

; Function Attrs: null_pointer_is_valid sspstrong uwtable
define internal i32 @fDate(ptr noundef %0, ptr noundef %1, ptr noundef %2, i32 noundef %3, ptr noundef %4) #0 {
  %6 = alloca ptr, align 8
  %7 = alloca ptr, align 8
  %8 = alloca ptr, align 8
  %9 = alloca i32, align 4
  %10 = alloca ptr, align 8
  %11 = alloca i32, align 4
  %12 = alloca i32, align 4
  %13 = alloca i32, align 4
  %14 = alloca i32, align 4
  %15 = alloca i8, align 1
  %16 = alloca i8, align 1
  %17 = alloca i32, align 4
  %18 = alloca i32, align 4
  %19 = alloca ptr, align 8
  store ptr %0, ptr %6, align 8
  store ptr %1, ptr %7, align 8
  store ptr %2, ptr %8, align 8
  store i32 %3, ptr %9, align 4
  store ptr %4, ptr %10, align 8
  call void @llvm.lifetime.start.p0(i64 4, ptr %11) #7
  call void @llvm.lifetime.start.p0(i64 4, ptr %12) #7
  call void @llvm.lifetime.start.p0(i64 4, ptr %13) #7
  call void @llvm.lifetime.start.p0(i64 4, ptr %14) #7
  call void @llvm.lifetime.start.p0(i64 1, ptr %15) #7
  call void @llvm.lifetime.start.p0(i64 1, ptr %16) #7
  call void @llvm.lifetime.start.p0(i64 4, ptr %17) #7
  call void @llvm.lifetime.start.p0(i64 4, ptr %18) #7
  call void @llvm.lifetime.start.p0(i64 8, ptr %19) #7
  %20 = load ptr, ptr %6, align 8
  %21 = load ptr, ptr %7, align 8
  %22 = load i32, ptr %9, align 4
  %23 = call i32 @fTagHeader(ptr noundef %20, ptr noundef %21, i32 noundef %22, ptr noundef %15, ptr noundef %16, ptr noundef %17)
  store i32 %23, ptr %18, align 4
  %24 = load ptr, ptr %6, align 8
  %25 = load i32, ptr %9, align 4
  %26 = load i32, ptr %18, align 4
  %27 = add i32 %25, %26
  %28 = call zeroext i8 @tvb_get_uint8(ptr noundef %24, i32 noundef %27)
  %29 = zext i8 %28 to i32
  store i32 %29, ptr %11, align 4
  %30 = load ptr, ptr %6, align 8
  %31 = load i32, ptr %9, align 4
  %32 = load i32, ptr %18, align 4
  %33 = add i32 %31, %32
  %34 = add i32 %33, 1
  %35 = call zeroext i8 @tvb_get_uint8(ptr noundef %30, i32 noundef %34)
  %36 = zext i8 %35 to i32
  store i32 %36, ptr %12, align 4
  %37 = load ptr, ptr %6, align 8
  %38 = load i32, ptr %9, align 4
  %39 = load i32, ptr %18, align 4
  %40 = add i32 %38, %39
  %41 = add i32 %40, 2
  %42 = call zeroext i8 @tvb_get_uint8(ptr noundef %37, i32 noundef %41)
  %43 = zext i8 %42 to i32
  store i32 %43, ptr %13, align 4
  %44 = load ptr, ptr %6, align 8
  %45 = load i32, ptr %9, align 4
  %46 = load i32, ptr %18, align 4
  %47 = add i32 %45, %46
  %48 = add i32 %47, 3
  %49 = call zeroext i8 @tvb_get_uint8(ptr noundef %44, i32 noundef %48)
  %50 = zext i8 %49 to i32
  store i32 %50, ptr %14, align 4
  %51 = load i32, ptr %11, align 4
  %52 = icmp eq i32 %51, 255
  br i1 %52, label %53, label %72

53:                                               ; preds = %5
  %54 = load i32, ptr %13, align 4
  %55 = icmp eq i32 %54, 255
  br i1 %55, label %56, label %72

56:                                               ; preds = %53
  %57 = load i32, ptr %12, align 4
  %58 = icmp eq i32 %57, 255
  br i1 %58, label %59, label %72

59:                                               ; preds = %56
  %60 = load i32, ptr %14, align 4
  %61 = icmp eq i32 %60, 255
  br i1 %61, label %62, label %72

62:                                               ; preds = %59
  %63 = load ptr, ptr %8, align 8
  %64 = load ptr, ptr %6, align 8
  %65 = load i32, ptr %9, align 4
  %66 = load i32, ptr %17, align 4
  %67 = load i32, ptr %18, align 4
  %68 = add i32 %66, %67
  %69 = load i32, ptr @ett_bacapp_tag, align 4
  %70 = load ptr, ptr %10, align 8
  %71 = call ptr (ptr, ptr, i32, i32, i32, ptr, ptr, ...) @proto_tree_add_subtree_format(ptr noundef %63, ptr noundef %64, i32 noundef %65, i32 noundef %68, i32 noundef %69, ptr noundef null, ptr noundef @.str.2628, ptr noundef %70)
  store ptr %71, ptr %19, align 8
  br label %109

72:                                               ; preds = %59, %56, %53, %5
  %73 = load i32, ptr %11, align 4
  %74 = icmp ne i32 %73, 255
  br i1 %74, label %75, label %93

75:                                               ; preds = %72
  %76 = load i32, ptr %11, align 4
  %77 = add i32 %76, 1900
  store i32 %77, ptr %11, align 4
  %78 = load ptr, ptr %8, align 8
  %79 = load ptr, ptr %6, align 8
  %80 = load i32, ptr %9, align 4
  %81 = load i32, ptr %17, align 4
  %82 = load i32, ptr %18, align 4
  %83 = add i32 %81, %82
  %84 = load i32, ptr @ett_bacapp_tag, align 4
  %85 = load ptr, ptr %10, align 8
  %86 = load i32, ptr %12, align 4
  %87 = call ptr @val_to_str(i32 noundef %86, ptr noundef @months, ptr noundef @.str.2630)
  %88 = load i32, ptr %13, align 4
  %89 = load i32, ptr %11, align 4
  %90 = load i32, ptr %14, align 4
  %91 = call ptr @val_to_str(i32 noundef %90, ptr noundef @day_of_week, ptr noundef @.str.2631)
  %92 = call ptr (ptr, ptr, i32, i32, i32, ptr, ptr, ...) @proto_tree_add_subtree_format(ptr noundef %78, ptr noundef %79, i32 noundef %80, i32 noundef %83, i32 noundef %84, ptr noundef null, ptr noundef @.str.2629, ptr noundef %85, ptr noundef %87, i32 noundef %88, i32 noundef %89, ptr noundef %91)
  store ptr %92, ptr %19, align 8
  br label %108

93:                                               ; preds = %72
  %94 = load ptr, ptr %8, align 8
  %95 = load ptr, ptr %6, align 8
  %96 = load i32, ptr %9, align 4
  %97 = load i32, ptr %17, align 4
  %98 = load i32, ptr %18, align 4
  %99 = add i32 %97, %98
  %100 = load i32, ptr @ett_bacapp_tag, align 4
  %101 = load ptr, ptr %10, align 8
  %102 = load i32, ptr %12, align 4
  %103 = call ptr @val_to_str(i32 noundef %102, ptr noundef @months, ptr noundef @.str.2630)
  %104 = load i32, ptr %13, align 4
  %105 = load i32, ptr %14, align 4
  %106 = call ptr @val_to_str(i32 noundef %105, ptr noundef @day_of_week, ptr noundef @.str.2631)
  %107 = call ptr (ptr, ptr, i32, i32, i32, ptr, ptr, ...) @proto_tree_add_subtree_format(ptr noundef %94, ptr noundef %95, i32 noundef %96, i32 noundef %99, i32 noundef %100, ptr noundef null, ptr noundef @.str.2632, ptr noundef %101, ptr noundef %103, i32 noundef %104, ptr noundef %106)
  store ptr %107, ptr %19, align 8
  br label %108

108:                                              ; preds = %93, %75
  br label %109

109:                                              ; preds = %108, %62
  %110 = load ptr, ptr %6, align 8
  %111 = load ptr, ptr %7, align 8
  %112 = load ptr, ptr %19, align 8
  %113 = load i32, ptr %9, align 4
  %114 = call i32 @fTagHeaderTree(ptr noundef %110, ptr noundef %111, ptr noundef %112, i32 noundef %113, ptr noundef %15, ptr noundef %16, ptr noundef %17)
  %115 = load i32, ptr %9, align 4
  %116 = load i32, ptr %18, align 4
  %117 = add i32 %115, %116
  %118 = load i32, ptr %17, align 4
  %119 = add i32 %117, %118
  call void @llvm.lifetime.end.p0(i64 8, ptr %19) #7
  call void @llvm.lifetime.end.p0(i64 4, ptr %18) #7
  call void @llvm.lifetime.end.p0(i64 4, ptr %17) #7
  call void @llvm.lifetime.end.p0(i64 1, ptr %16) #7
  call void @llvm.lifetime.end.p0(i64 1, ptr %15) #7
  call void @llvm.lifetime.end.p0(i64 4, ptr %14) #7
  call void @llvm.lifetime.end.p0(i64 4, ptr %13) #7
  call void @llvm.lifetime.end.p0(i64 4, ptr %12) #7
  call void @llvm.lifetime.end.p0(i64 4, ptr %11) #7
  ret i32 %119
}