; Function Attrs: null_pointer_is_valid sspstrong uwtable
define internal fastcc i32 @fDate(ptr noundef nonnull %0, ptr noundef %1, ptr noundef %2, i32 noundef %3, ptr noundef %4) unnamed_addr #0 {
  %6 = alloca i8, align 1
  %7 = alloca i8, align 1
  %8 = alloca i32, align 4
  call void @llvm.lifetime.start.p0(i64 1, ptr nonnull %6) #6
  call void @llvm.lifetime.start.p0(i64 1, ptr nonnull %7) #6
  call void @llvm.lifetime.start.p0(i64 4, ptr nonnull %8) #6
  %9 = call fastcc range(i32 1, 8) i32 @fTagHeaderTree(ptr noundef nonnull %0, ptr noundef %1, ptr noundef null, i32 noundef %3, ptr noundef nonnull %6, ptr noundef nonnull %7, ptr noundef nonnull %8)
  %10 = add i32 %9, %3
  %11 = tail call zeroext i8 @tvb_get_uint8(ptr noundef nonnull %0, i32 noundef %10)
  %12 = zext i8 %11 to i32
  %13 = add i32 %10, 1
  %14 = tail call zeroext i8 @tvb_get_uint8(ptr noundef nonnull %0, i32 noundef %13)
  %15 = zext i8 %14 to i32
  %16 = add i32 %10, 2
  %17 = tail call zeroext i8 @tvb_get_uint8(ptr noundef nonnull %0, i32 noundef %16)
  %18 = zext i8 %17 to i32
  %19 = add i32 %10, 3
  %20 = tail call zeroext i8 @tvb_get_uint8(ptr noundef nonnull %0, i32 noundef %19)
  %21 = zext i8 %20 to i32
  %22 = icmp eq i8 %11, -1
  %23 = icmp eq i8 %17, -1
  %or.cond = select i1 %22, i1 %23, i1 false
  %24 = icmp eq i8 %14, -1
  %or.cond3 = select i1 %or.cond, i1 %24, i1 false
  %25 = icmp eq i8 %20, -1
  %or.cond5 = select i1 %or.cond3, i1 %25, i1 false
  br i1 %or.cond5, label %26, label %31

26:                                               ; preds = %5
  %27 = load i32, ptr %8, align 4
  %28 = add i32 %27, %9
  %29 = load i32, ptr @ett_bacapp_tag, align 4
  %30 = tail call ptr (ptr, ptr, i32, i32, i32, ptr, ptr, ...) @proto_tree_add_subtree_format(ptr noundef %2, ptr noundef nonnull %0, i32 noundef %3, i32 noundef %28, i32 noundef %29, ptr noundef null, ptr noundef nonnull @.str.2628, ptr noundef %4)
  br label %47

31:                                               ; preds = %5
  br i1 %22, label %40, label %32

32:                                               ; preds = %31
  %33 = add nuw nsw i32 %12, 1900
  %34 = load i32, ptr %8, align 4
  %35 = add i32 %34, %9
  %36 = load i32, ptr @ett_bacapp_tag, align 4
  %37 = tail call ptr @val_to_str(i32 noundef %15, ptr noundef nonnull @months, ptr noundef nonnull @.str.2630)
  %38 = tail call ptr @val_to_str(i32 noundef %21, ptr noundef nonnull @day_of_week, ptr noundef nonnull @.str.2631)
  %39 = tail call ptr (ptr, ptr, i32, i32, i32, ptr, ptr, ...) @proto_tree_add_subtree_format(ptr noundef %2, ptr noundef nonnull %0, i32 noundef %3, i32 noundef %35, i32 noundef %36, ptr noundef null, ptr noundef nonnull @.str.2629, ptr noundef %4, ptr noundef %37, i32 noundef %18, i32 noundef %33, ptr noundef %38)
  br label %47

40:                                               ; preds = %31
  %41 = load i32, ptr %8, align 4
  %42 = add i32 %41, %9
  %43 = load i32, ptr @ett_bacapp_tag, align 4
  %44 = tail call ptr @val_to_str(i32 noundef %15, ptr noundef nonnull @months, ptr noundef nonnull @.str.2630)
  %45 = tail call ptr @val_to_str(i32 noundef %21, ptr noundef nonnull @day_of_week, ptr noundef nonnull @.str.2631)
  %46 = tail call ptr (ptr, ptr, i32, i32, i32, ptr, ptr, ...) @proto_tree_add_subtree_format(ptr noundef %2, ptr noundef nonnull %0, i32 noundef %3, i32 noundef %42, i32 noundef %43, ptr noundef null, ptr noundef nonnull @.str.2632, ptr noundef %4, ptr noundef %44, i32 noundef %18, ptr noundef %45)
  br label %47

47:                                               ; preds = %32, %40, %26
  %.0 = phi ptr [ %30, %26 ], [ %39, %32 ], [ %46, %40 ]
  %48 = call fastcc i32 @fTagHeaderTree(ptr noundef %0, ptr noundef %1, ptr noundef %.0, i32 noundef %3, ptr noundef nonnull %6, ptr noundef nonnull %7, ptr noundef nonnull %8)
  %49 = load i32, ptr %8, align 4
  %50 = add i32 %49, %10
  call void @llvm.lifetime.end.p0(i64 4, ptr nonnull %8) #6
  call void @llvm.lifetime.end.p0(i64 1, ptr nonnull %7) #6
  call void @llvm.lifetime.end.p0(i64 1, ptr nonnull %6) #6
  ret i32 %50
}